; ModuleID = 'source-C-CXX/11/1294.cpp'
source_filename = "source-C-CXX/11/1294.cpp"
target datalayout = "e-m:e-p270:32:32-p271:32:32-p272:64:64-i64:64-f80:128-n8:16:32:64-S128"
target triple = "x86_64-pc-linux-gnu"

%"class.std::ios_base::Init" = type { i8 }
%"class.std::basic_istream" = type { i32 (...)**, i64, %"class.std::basic_ios" }
%"class.std::basic_ios" = type { %"class.std::ios_base", %"class.std::basic_ostream"*, i8, i8, %"class.std::basic_streambuf"*, %"class.std::ctype"*, %"class.std::num_put"*, %"class.std::num_get"* }
%"class.std::ios_base" = type { i32 (...)**, i64, i64, i32, i32, i32, %"struct.std::ios_base::_Callback_list"*, %"struct.std::ios_base::_Words", [8 x %"struct.std::ios_base::_Words"], i32, %"struct.std::ios_base::_Words"*, %"class.std::locale" }
%"struct.std::ios_base::_Callback_list" = type { %"struct.std::ios_base::_Callback_list"*, void (i32, %"class.std::ios_base"*, i32)*, i32, i32 }
%"struct.std::ios_base::_Words" = type { i8*, i64 }
%"class.std::locale" = type { %"class.std::locale::_Impl"* }
%"class.std::locale::_Impl" = type { i32, %"class.std::locale::facet"**, i64, %"class.std::locale::facet"**, i8** }
%"class.std::locale::facet" = type <{ i32 (...)**, i32, [4 x i8] }>
%"class.std::basic_ostream" = type { i32 (...)**, %"class.std::basic_ios" }
%"class.std::basic_streambuf" = type { i32 (...)**, i8*, i8*, i8*, i8*, i8*, i8*, %"class.std::locale" }
%"class.std::ctype" = type <{ %"class.std::locale::facet.base", [4 x i8], %struct.__locale_struct*, i8, [7 x i8], i32*, i32*, i16*, i8, [256 x i8], [256 x i8], i8, [6 x i8] }>
%"class.std::locale::facet.base" = type <{ i32 (...)**, i32 }>
%struct.__locale_struct = type { [13 x %struct.__locale_data*], i16*, i32*, i32*, [13 x i8*] }
%struct.__locale_data = type opaque
%"class.std::num_put" = type { %"class.std::locale::facet.base", [4 x i8] }
%"class.std::num_get" = type { %"class.std::locale::facet.base", [4 x i8] }

@_ZStL8__ioinit = internal global %"class.std::ios_base::Init" zeroinitializer, align 1
@__dso_handle = external hidden global i8
@_ZSt3cin = external global %"class.std::basic_istream", align 8
@_ZSt4cout = external global %"class.std::basic_ostream", align 8
@llvm.global_ctors = appending global [1 x { i32, void ()*, i8* }] [{ i32, void ()*, i8* } { i32 65535, void ()* @_GLOBAL__sub_I_1294.cpp, i8* null }]

declare void @_ZNSt8ios_base4InitC1Ev(%"class.std::ios_base::Init"* nonnull align 1 dereferenceable(1)) unnamed_addr #0

; Function Attrs: nounwind
declare void @_ZNSt8ios_base4InitD1Ev(%"class.std::ios_base::Init"* nonnull align 1 dereferenceable(1)) unnamed_addr #1

; Function Attrs: nofree nounwind
declare i32 @__cxa_atexit(void (i8*)*, i8*, i8*) local_unnamed_addr #2

; Function Attrs: mustprogress norecurse sspstrong uwtable
define dso_local i32 @main() local_unnamed_addr #3 {
  %1 = alloca [16 x i32], align 16
  %2 = bitcast [16 x i32]* %1 to i8*
  call void @llvm.lifetime.start.p0i8(i64 64, i8* nonnull %2) #8
  %3 = getelementptr inbounds [16 x i32], [16 x i32]* %1, i64 0, i64 0
  %4 = call nonnull align 8 dereferenceable(16) %"class.std::basic_istream"* @_ZNSirsERi(%"class.std::basic_istream"* nonnull align 8 dereferenceable(16) @_ZSt3cin, i32* nonnull align 4 dereferenceable(4) %3)
  %5 = load i32, i32* %3, align 16, !tbaa !5
  %6 = icmp eq i32 %5, -1
  br i1 %6, label %113, label %7

7:                                                ; preds = %0, %91
  %8 = phi i32 [ %96, %91 ], [ %5, %0 ]
  %9 = icmp eq i32 %8, 0
  br i1 %9, label %63, label %19

10:                                               ; preds = %19
  %11 = trunc i64 %21 to i32
  %12 = icmp eq i32 %11, 0
  br i1 %12, label %63, label %13

13:                                               ; preds = %10
  %14 = and i64 %21, 4294967295
  %15 = icmp ult i64 %14, 8
  %16 = and i64 %21, 7
  %17 = sub nsw i64 %14, %16
  %18 = icmp eq i64 %16, 0
  br label %26

19:                                               ; preds = %7, %19
  %20 = phi i64 [ %21, %19 ], [ 0, %7 ]
  %21 = add nuw nsw i64 %20, 1
  %22 = getelementptr inbounds [16 x i32], [16 x i32]* %1, i64 0, i64 %21
  %23 = call nonnull align 8 dereferenceable(16) %"class.std::basic_istream"* @_ZNSirsERi(%"class.std::basic_istream"* nonnull align 8 dereferenceable(16) @_ZSt3cin, i32* nonnull align 4 dereferenceable(4) %22)
  %24 = load i32, i32* %22, align 4, !tbaa !5
  %25 = icmp eq i32 %24, 0
  br i1 %25, label %10, label %19, !llvm.loop !9

26:                                               ; preds = %13, %98
  %27 = phi i64 [ 0, %13 ], [ %100, %98 ]
  %28 = phi i32 [ 0, %13 ], [ %99, %98 ]
  %29 = getelementptr inbounds [16 x i32], [16 x i32]* %1, i64 0, i64 %27
  %30 = load i32, i32* %29, align 4, !tbaa !5
  br i1 %15, label %60, label %31

31:                                               ; preds = %26
  %32 = insertelement <4 x i32> <i32 poison, i32 0, i32 0, i32 0>, i32 %28, i32 0
  %33 = insertelement <4 x i32> poison, i32 %30, i32 0
  %34 = shufflevector <4 x i32> %33, <4 x i32> poison, <4 x i32> zeroinitializer
  %35 = insertelement <4 x i32> poison, i32 %30, i32 0
  %36 = shufflevector <4 x i32> %35, <4 x i32> poison, <4 x i32> zeroinitializer
  br label %37

37:                                               ; preds = %37, %31
  %38 = phi i64 [ 0, %31 ], [ %55, %37 ]
  %39 = phi <4 x i32> [ %32, %31 ], [ %53, %37 ]
  %40 = phi <4 x i32> [ zeroinitializer, %31 ], [ %54, %37 ]
  %41 = getelementptr inbounds [16 x i32], [16 x i32]* %1, i64 0, i64 %38
  %42 = bitcast i32* %41 to <4 x i32>*
  %43 = load <4 x i32>, <4 x i32>* %42, align 16, !tbaa !5
  %44 = getelementptr inbounds i32, i32* %41, i64 4
  %45 = bitcast i32* %44 to <4 x i32>*
  %46 = load <4 x i32>, <4 x i32>* %45, align 16, !tbaa !5
  %47 = shl nsw <4 x i32> %43, <i32 1, i32 1, i32 1, i32 1>
  %48 = shl nsw <4 x i32> %46, <i32 1, i32 1, i32 1, i32 1>
  %49 = icmp eq <4 x i32> %34, %47
  %50 = icmp eq <4 x i32> %36, %48
  %51 = zext <4 x i1> %49 to <4 x i32>
  %52 = zext <4 x i1> %50 to <4 x i32>
  %53 = add <4 x i32> %39, %51
  %54 = add <4 x i32> %40, %52
  %55 = add nuw i64 %38, 8
  %56 = icmp eq i64 %55, %17
  br i1 %56, label %57, label %37, !llvm.loop !11

57:                                               ; preds = %37
  %58 = add <4 x i32> %54, %53
  %59 = call i32 @llvm.vector.reduce.add.v4i32(<4 x i32> %58)
  br i1 %18, label %98, label %60

60:                                               ; preds = %26, %57
  %61 = phi i64 [ 0, %26 ], [ %17, %57 ]
  %62 = phi i32 [ %28, %26 ], [ %59, %57 ]
  br label %102

63:                                               ; preds = %98, %7, %10
  %64 = phi i32 [ 0, %10 ], [ 0, %7 ], [ %99, %98 ]
  %65 = call nonnull align 8 dereferenceable(8) %"class.std::basic_ostream"* @_ZNSolsEi(%"class.std::basic_ostream"* nonnull align 8 dereferenceable(8) @_ZSt4cout, i32 %64)
  %66 = bitcast %"class.std::basic_ostream"* %65 to i8**
  %67 = load i8*, i8** %66, align 8, !tbaa !13
  %68 = getelementptr i8, i8* %67, i64 -24
  %69 = bitcast i8* %68 to i64*
  %70 = load i64, i64* %69, align 8
  %71 = bitcast %"class.std::basic_ostream"* %65 to i8*
  %72 = add nsw i64 %70, 240
  %73 = getelementptr inbounds i8, i8* %71, i64 %72
  %74 = bitcast i8* %73 to %"class.std::ctype"**
  %75 = load %"class.std::ctype"*, %"class.std::ctype"** %74, align 8, !tbaa !15
  %76 = icmp eq %"class.std::ctype"* %75, null
  br i1 %76, label %77, label %78

77:                                               ; preds = %63
  call void @_ZSt16__throw_bad_castv() #9
  unreachable

78:                                               ; preds = %63
  %79 = getelementptr inbounds %"class.std::ctype", %"class.std::ctype"* %75, i64 0, i32 8
  %80 = load i8, i8* %79, align 8, !tbaa !19
  %81 = icmp eq i8 %80, 0
  br i1 %81, label %85, label %82

82:                                               ; preds = %78
  %83 = getelementptr inbounds %"class.std::ctype", %"class.std::ctype"* %75, i64 0, i32 9, i64 10
  %84 = load i8, i8* %83, align 1, !tbaa !21
  br label %91

85:                                               ; preds = %78
  call void @_ZNKSt5ctypeIcE13_M_widen_initEv(%"class.std::ctype"* nonnull align 8 dereferenceable(570) %75)
  %86 = bitcast %"class.std::ctype"* %75 to i8 (%"class.std::ctype"*, i8)***
  %87 = load i8 (%"class.std::ctype"*, i8)**, i8 (%"class.std::ctype"*, i8)*** %86, align 8, !tbaa !13
  %88 = getelementptr inbounds i8 (%"class.std::ctype"*, i8)*, i8 (%"class.std::ctype"*, i8)** %87, i64 6
  %89 = load i8 (%"class.std::ctype"*, i8)*, i8 (%"class.std::ctype"*, i8)** %88, align 8
  %90 = call signext i8 %89(%"class.std::ctype"* nonnull align 8 dereferenceable(570) %75, i8 signext 10)
  br label %91

91:                                               ; preds = %82, %85
  %92 = phi i8 [ %84, %82 ], [ %90, %85 ]
  %93 = call nonnull align 8 dereferenceable(8) %"class.std::basic_ostream"* @_ZNSo3putEc(%"class.std::basic_ostream"* nonnull align 8 dereferenceable(8) %65, i8 signext %92)
  %94 = call nonnull align 8 dereferenceable(8) %"class.std::basic_ostream"* @_ZNSo5flushEv(%"class.std::basic_ostream"* nonnull align 8 dereferenceable(8) %93)
  %95 = call nonnull align 8 dereferenceable(16) %"class.std::basic_istream"* @_ZNSirsERi(%"class.std::basic_istream"* nonnull align 8 dereferenceable(16) @_ZSt3cin, i32* nonnull align 4 dereferenceable(4) %3)
  %96 = load i32, i32* %3, align 16, !tbaa !5
  %97 = icmp eq i32 %96, -1
  br i1 %97, label %113, label %7, !llvm.loop !22

98:                                               ; preds = %102, %57
  %99 = phi i32 [ %59, %57 ], [ %110, %102 ]
  %100 = add nuw nsw i64 %27, 1
  %101 = icmp eq i64 %100, %14
  br i1 %101, label %63, label %26, !llvm.loop !23

102:                                              ; preds = %60, %102
  %103 = phi i64 [ %111, %102 ], [ %61, %60 ]
  %104 = phi i32 [ %110, %102 ], [ %62, %60 ]
  %105 = getelementptr inbounds [16 x i32], [16 x i32]* %1, i64 0, i64 %103
  %106 = load i32, i32* %105, align 4, !tbaa !5
  %107 = shl nsw i32 %106, 1
  %108 = icmp eq i32 %30, %107
  %109 = zext i1 %108 to i32
  %110 = add nsw i32 %104, %109
  %111 = add nuw nsw i64 %103, 1
  %112 = icmp eq i64 %111, %14
  br i1 %112, label %98, label %102, !llvm.loop !24

113:                                              ; preds = %91, %0
  call void @llvm.lifetime.end.p0i8(i64 64, i8* nonnull %2) #8
  ret i32 0
}

; Function Attrs: argmemonly mustprogress nofree nosync nounwind willreturn
declare void @llvm.lifetime.start.p0i8(i64 immarg, i8* nocapture) #4

declare nonnull align 8 dereferenceable(16) %"class.std::basic_istream"* @_ZNSirsERi(%"class.std::basic_istream"* nonnull align 8 dereferenceable(16), i32* nonnull align 4 dereferenceable(4)) local_unnamed_addr #0

; Function Attrs: argmemonly mustprogress nofree nosync nounwind willreturn
declare void @llvm.lifetime.end.p0i8(i64 immarg, i8* nocapture) #4

declare nonnull align 8 dereferenceable(8) %"class.std::basic_ostream"* @_ZNSolsEi(%"class.std::basic_ostream"* nonnull align 8 dereferenceable(8), i32) local_unnamed_addr #0

declare nonnull align 8 dereferenceable(8) %"class.std::basic_ostream"* @_ZNSo3putEc(%"class.std::basic_ostream"* nonnull align 8 dereferenceable(8), i8 signext) local_unnamed_addr #0

declare nonnull align 8 dereferenceable(8) %"class.std::basic_ostream"* @_ZNSo5flushEv(%"class.std::basic_ostream"* nonnull align 8 dereferenceable(8)) local_unnamed_addr #0

; Function Attrs: noreturn
declare void @_ZSt16__throw_bad_castv() local_unnamed_addr #5

declare void @_ZNKSt5ctypeIcE13_M_widen_initEv(%"class.std::ctype"* nonnull align 8 dereferenceable(570)) local_unnamed_addr #0

; Function Attrs: sspstrong uwtable
define internal void @_GLOBAL__sub_I_1294.cpp() #6 section ".text.startup" {
  tail call void @_ZNSt8ios_base4InitC1Ev(%"class.std::ios_base::Init"* nonnull align 1 dereferenceable(1) @_ZStL8__ioinit)
  %1 = tail call i32 @__cxa_atexit(void (i8*)* bitcast (void (%"class.std::ios_base::Init"*)* @_ZNSt8ios_base4InitD1Ev to void (i8*)*), i8* getelementptr inbounds (%"class.std::ios_base::Init", %"class.std::ios_base::Init"* @_ZStL8__ioinit, i64 0, i32 0), i8* nonnull @__dso_handle) #8
  ret void
}

; Function Attrs: nofree nosync nounwind readnone willreturn
declare i32 @llvm.vector.reduce.add.v4i32(<4 x i32>) #7


!llvm.module.flags = !{!0, !1, !2, !3}
!llvm.ident = !{!4}

!0 = !{i32 1, !"wchar_size", i32 4}
!1 = !{i32 7, !"PIC Level", i32 2}
!2 = !{i32 7, !"PIE Level", i32 2}
!3 = !{i32 7, !"uwtable", i32 1}
!4 = !{!"clang version 13.0.0"}
!5 = !{!6, !6, i64 0}
!6 = !{!"int", !7, i64 0}
!7 = !{!"omnipotent char", !8, i64 0}
!8 = !{!"Simple C++ TBAA"}
!9 = distinct !{!9, !10}
!10 = !{!"llvm.loop.mustprogress"}
!11 = distinct !{!11, !10, !12}
!12 = !{!"llvm.loop.isvectorized", i32 1}
!13 = !{!14, !14, i64 0}
!14 = !{!"vtable pointer", !8, i64 0}
!15 = !{!16, !17, i64 240}
!16 = !{!"_ZTSSt9basic_iosIcSt11char_traitsIcEE", !17, i64 216, !7, i64 224, !18, i64 225, !17, i64 232, !17, i64 240, !17, i64 248, !17, i64 256}
!17 = !{!"any pointer", !7, i64 0}
!18 = !{!"bool", !7, i64 0}
!19 = !{!20, !7, i64 56}
!20 = !{!"_ZTSSt5ctypeIcE", !17, i64 16, !18, i64 24, !17, i64 32, !17, i64 40, !17, i64 48, !7, i64 56, !7, i64 57, !7, i64 313, !7, i64 569}
!21 = !{!7, !7, i64 0}
!22 = distinct !{!22, !10}
!23 = distinct !{!23, !10}
!24 = distinct !{!24, !10, !25, !12}
!25 = !{!"llvm.loop.unroll.runtime.disable"}
